target datalayout = "e-m:e-p270:32:32-p271:32:32-p272:64:64-i64:64-i128:128-f80:128-n8:16:32:64-S128"
target triple = "x86_64-pc-linux-gnu"

%union.pthread_mutex_t = type { %struct.__pthread_mutex_s }
%struct.__pthread_mutex_s = type { i32, i32, i32, i32, i32, i16, i16, %struct.__pthread_internal_list }
%struct.__pthread_internal_list = type { ptr, ptr }
%union.pthread_cond_t = type { %struct.__pthread_cond_s }
%struct.__pthread_cond_s = type { %union.__atomic_wide_counter, %union.__atomic_wide_counter, [2 x i32], [2 x i32], i32, i32, [2 x i32] }
%union.__atomic_wide_counter = type { i64 }
%struct.log_options_t = type { i32, i32, i32, i8, i8, i8, i32 }
%struct.slurmd_config = type { ptr, ptr, i32, [4096 x i8], ptr, ptr, ptr, ptr, i16, i16, i16, i16, ptr, i16, i64, i16, i16, i16, i16, i16, i16, i16, i16, i16, i16, i16, i64, i64, i32, i32, i16, ptr, ptr, ptr, i32, ptr, ptr, ptr, ptr, ptr, ptr, ptr, ptr, ptr, ptr, i32, ptr, ptr, i16, i32, i32, %struct.log_options_t, i32, i16, i64, i8, i8, i8, i8, i8, %union.pthread_mutex_t, i16, ptr, %union.pthread_cond_t, ptr, %union.pthread_cond_t, i8, i8, ptr, ptr }

@conf = dso_local global ptr null, align 8
@.str.283 = private unnamed_addr constant [22 x i8] c"Unable to chdir to %s\00", align 1
@.str.284 = private unnamed_addr constant [9 x i8] c"/var/tmp\00", align 1
@.str.285 = private unnamed_addr constant [20 x i8] c"chdir(/var/tmp): %m\00", align 1
@.str.286 = private unnamed_addr constant [18 x i8] c"chdir to /var/tmp\00", align 1

; Function Attrs: nounwind uwtable
define internal i32 @_set_work_dir() #0 {
  %1 = alloca i32, align 4
  %2 = alloca i8, align 1
  %3 = alloca ptr, align 8
  %4 = alloca ptr, align 8
  %5 = alloca i32, align 4
  call void @llvm.lifetime.start.p0(i64 1, ptr %2) #11
  store i8 0, ptr %2, align 1
  %6 = load ptr, ptr @conf, align 8
  %7 = getelementptr inbounds nuw %struct.slurmd_config, ptr %6, i32 0, i32 42
  %8 = load ptr, ptr %7, align 8
  %9 = icmp ne ptr %8, null
  br i1 %9, label %10, label %47

10:                                               ; preds = %0
  %11 = load ptr, ptr @conf, align 8
  %12 = getelementptr inbounds nuw %struct.slurmd_config, ptr %11, i32 0, i32 42
  %13 = load ptr, ptr %12, align 8
  %14 = getelementptr inbounds i8, ptr %13, i64 0
  %15 = load i8, ptr %14, align 1
  %16 = sext i8 %15 to i32
  %17 = icmp eq i32 %16, 47
  br i1 %17, label %18, label %47

18:                                               ; preds = %10
  call void @llvm.lifetime.start.p0(i64 8, ptr %3) #11
  call void @llvm.lifetime.start.p0(i64 8, ptr %4) #11
  %19 = load ptr, ptr @conf, align 8
  %20 = getelementptr inbounds nuw %struct.slurmd_config, ptr %19, i32 0, i32 42
  %21 = load ptr, ptr %20, align 8
  %22 = call ptr @xstrdup(ptr noundef %21)
  store ptr %22, ptr %4, align 8
  %23 = load ptr, ptr %4, align 8
  %24 = call ptr @strrchr(ptr noundef %23, i32 noundef 47) #14
  store ptr %24, ptr %3, align 8
  %25 = load ptr, ptr %3, align 8
  %26 = load ptr, ptr %4, align 8
  %27 = icmp eq ptr %25, %26
  br i1 %27, label %28, label %31

28:                                               ; preds = %18
  %29 = load ptr, ptr %4, align 8
  %30 = getelementptr inbounds i8, ptr %29, i64 1
  store i8 0, ptr %30, align 1
  br label %34

31:                                               ; preds = %18
  %32 = load ptr, ptr %3, align 8
  %33 = getelementptr inbounds i8, ptr %32, i64 0
  store i8 0, ptr %33, align 1
  br label %34

34:                                               ; preds = %31, %28
  %35 = load ptr, ptr %4, align 8
  %36 = call i32 @access(ptr noundef %35, i32 noundef 2) #11
  %37 = icmp ne i32 %36, 0
  br i1 %37, label %42, label %38

38:                                               ; preds = %34
  %39 = load ptr, ptr %4, align 8
  %40 = call i32 @chdir(ptr noundef %39) #11
  %41 = icmp slt i32 %40, 0
  br i1 %41, label %42, label %45

42:                                               ; preds = %38, %34
  %43 = load ptr, ptr %4, align 8
  %44 = call i32 (ptr, ...) @error(ptr noundef @.str.283, ptr noundef %43)
  br label %46

45:                                               ; preds = %38
  store i8 1, ptr %2, align 1
  br label %46

46:                                               ; preds = %45, %42
  call void @slurm_xfree(ptr noundef %4)
  call void @llvm.lifetime.end.p0(i64 8, ptr %4) #11
  call void @llvm.lifetime.end.p0(i64 8, ptr %3) #11
  br label %47

47:                                               ; preds = %46, %10, %0
  %48 = load i8, ptr %2, align 1, !range !8, !noundef !9
  %49 = trunc i8 %48 to i1
  br i1 %49, label %69, label %50

50:                                               ; preds = %47
  %51 = load ptr, ptr @conf, align 8
  %52 = getelementptr inbounds nuw %struct.slurmd_config, ptr %51, i32 0, i32 46
  %53 = load ptr, ptr %52, align 8
  %54 = call i32 @access(ptr noundef %53, i32 noundef 2) #11
  %55 = icmp ne i32 %54, 0
  br i1 %55, label %62, label %56

56:                                               ; preds = %50
  %57 = load ptr, ptr @conf, align 8
  %58 = getelementptr inbounds nuw %struct.slurmd_config, ptr %57, i32 0, i32 46
  %59 = load ptr, ptr %58, align 8
  %60 = call i32 @chdir(ptr noundef %59) #11
  %61 = icmp slt i32 %60, 0
  br i1 %61, label %62, label %67

62:                                               ; preds = %56, %50
  %63 = load ptr, ptr @conf, align 8
  %64 = getelementptr inbounds nuw %struct.slurmd_config, ptr %63, i32 0, i32 46
  %65 = load ptr, ptr %64, align 8
  %66 = call i32 (ptr, ...) @error(ptr noundef @.str.283, ptr noundef %65)
  br label %68

67:                                               ; preds = %56
  store i8 1, ptr %2, align 1
  br label %68

68:                                               ; preds = %67, %62
  br label %69

69:                                               ; preds = %68, %47
  %70 = load i8, ptr %2, align 1, !range !8, !noundef !9
  %71 = trunc i8 %70 to i1
  br i1 %71, label %92, label %72

72:                                               ; preds = %69
  %73 = call i32 @access(ptr noundef @.str.284, i32 noundef 2) #11
  %74 = icmp ne i32 %73, 0
  br i1 %74, label %78, label %75

75:                                               ; preds = %72
  %76 = call i32 @chdir(ptr noundef @.str.284) #11
  %77 = icmp slt i32 %76, 0
  br i1 %77, label %78, label %80

78:                                               ; preds = %75, %72
  %79 = call i32 (ptr, ...) @error(ptr noundef @.str.285)
  store i32 -1, ptr %1, align 4
  store i32 1, ptr %5, align 4
  br label %93

80:                                               ; preds = %75
  br label %81

81:                                               ; preds = %80
  br label %82

82:                                               ; preds = %81
  %83 = call i32 @get_log_level()
  %84 = icmp sge i32 %83, 3
  br i1 %84, label %85, label %86

85:                                               ; preds = %82
  call void (i32, ptr, ...) @log_var(i32 noundef 3, ptr noundef @.str.286)
  br label %86

86:                                               ; preds = %85, %82
  br label %87

87:                                               ; preds = %86
  br label %88

88:                                               ; preds = %87
  br label %89

89:                                               ; preds = %88
  br label %90

90:                                               ; preds = %89
  br label %91

91:                                               ; preds = %90
  br label %92

92:                                               ; preds = %91, %69
  store i32 0, ptr %1, align 4
  store i32 1, ptr %5, align 4
  br label %93

93:                                               ; preds = %92, %78
  call void @llvm.lifetime.end.p0(i64 1, ptr %2) #11
  %94 = load i32, ptr %1, align 4
  ret i32 %94
}