; Function Attrs: nounwind uwtable
define internal fastcc range(i32 -1, 1) i32 @_set_work_dir() unnamed_addr #0 {
  %1 = alloca ptr, align 8
  %2 = load ptr, ptr @conf, align 8
  %3 = getelementptr inbounds nuw i8, ptr %2, i64 4328
  %4 = load ptr, ptr %3, align 8
  %.not = icmp eq ptr %4, null
  br i1 %.not, label %.thread, label %5

5:                                                ; preds = %0
  %6 = load i8, ptr %4, align 1
  %7 = icmp eq i8 %6, 47
  br i1 %7, label %8, label %.thread

8:                                                ; preds = %5
  call void @llvm.lifetime.start.p0(i64 8, ptr nonnull %1) #18
  %9 = tail call ptr @xstrdup(ptr noundef nonnull %4) #18
  store ptr %9, ptr %1, align 8
  %10 = tail call ptr @strrchr(ptr noundef nonnull dereferenceable(1) %9, i32 noundef 47) #23
  %11 = icmp eq ptr %10, %9
  br i1 %11, label %12, label %14

12:                                               ; preds = %8
  %13 = getelementptr inbounds nuw i8, ptr %9, i64 1
  store i8 0, ptr %13, align 1
  br label %15

14:                                               ; preds = %8
  store i8 0, ptr %10, align 1
  br label %15

15:                                               ; preds = %14, %12
  %16 = tail call i32 @access(ptr noundef nonnull %9, i32 noundef 2) #18
  %.not8 = icmp eq i32 %16, 0
  br i1 %.not8, label %17, label %20

17:                                               ; preds = %15
  %18 = tail call i32 @chdir(ptr noundef nonnull %9) #18
  %19 = icmp slt i32 %18, 0
  br i1 %19, label %20, label %.thread13

.thread13:                                        ; preds = %17
  call void @slurm_xfree(ptr noundef nonnull %1) #18
  call void @llvm.lifetime.end.p0(i64 8, ptr nonnull %1) #18
  br label %.thread16

20:                                               ; preds = %15, %17
  %21 = tail call i32 (ptr, ...) @error(ptr noundef nonnull @.str.283, ptr noundef nonnull %9) #18
  call void @slurm_xfree(ptr noundef nonnull %1) #18
  call void @llvm.lifetime.end.p0(i64 8, ptr nonnull %1) #18
  %.pre = load ptr, ptr @conf, align 8
  br label %.thread

.thread:                                          ; preds = %0, %5, %20
  %22 = phi ptr [ %2, %0 ], [ %2, %5 ], [ %.pre, %20 ]
  %23 = getelementptr inbounds nuw i8, ptr %22, i64 4360
  %24 = load ptr, ptr %23, align 8
  %25 = call i32 @access(ptr noundef %24, i32 noundef 2) #18
  %.not9 = icmp eq i32 %25, 0
  br i1 %.not9, label %26, label %32

26:                                               ; preds = %.thread
  %27 = load ptr, ptr @conf, align 8
  %28 = getelementptr inbounds nuw i8, ptr %27, i64 4360
  %29 = load ptr, ptr %28, align 8
  %30 = call i32 @chdir(ptr noundef %29) #18
  %31 = icmp slt i32 %30, 0
  br i1 %31, label %32, label %.thread16

32:                                               ; preds = %26, %.thread
  %33 = load ptr, ptr @conf, align 8
  %34 = getelementptr inbounds nuw i8, ptr %33, i64 4360
  %35 = load ptr, ptr %34, align 8
  %36 = call i32 (ptr, ...) @error(ptr noundef nonnull @.str.283, ptr noundef %35) #18
  %37 = call i32 @access(ptr noundef nonnull @.str.284, i32 noundef 2) #18
  %.not10 = icmp eq i32 %37, 0
  br i1 %.not10, label %38, label %41

38:                                               ; preds = %32
  %39 = call i32 @chdir(ptr noundef nonnull @.str.284) #18
  %40 = icmp slt i32 %39, 0
  br i1 %40, label %41, label %43

41:                                               ; preds = %38, %32
  %42 = call i32 (ptr, ...) @error(ptr noundef nonnull @.str.285) #18
  br label %.thread16

43:                                               ; preds = %38
  %44 = call i32 @get_log_level() #18
  %45 = icmp sgt i32 %44, 2
  br i1 %45, label %46, label %.thread16

46:                                               ; preds = %43
  call void (i32, ptr, ...) @log_var(i32 noundef 3, ptr noundef nonnull @.str.286) #18
  br label %.thread16

.thread16:                                        ; preds = %.thread13, %26, %43, %46, %41
  %.0 = phi i32 [ -1, %41 ], [ 0, %46 ], [ 0, %43 ], [ 0, %26 ], [ 0, %.thread13 ]
  ret i32 %.0
}